target datalayout = "e-m:e-p270:32:32-p271:32:32-p272:64:64-i64:64-i128:128-f80:128-n8:16:32:64-S128"
target triple = "x86_64-pc-linux-gnu"

%struct.AVFilterContext = type { ptr, ptr, ptr, ptr, ptr, i32, ptr, ptr, i32, ptr, ptr, i32, i32, ptr, ptr, ptr, ptr, i32, ptr, i32, i32 }
%struct.CompensationDelayContext = type { ptr, i32, i32, i32, double, double, i32, i32, i32, i32, ptr }
%struct.AVFilterLink = type { ptr, ptr, ptr, ptr, i32, i32, i32, i32, %struct.AVRational, i32, i32, i32, %struct.AVChannelLayout, %struct.AVRational, ptr, i32, %struct.AVFilterFormatsConfig, %struct.AVFilterFormatsConfig }
%struct.AVChannelLayout = type { i32, i32, %union.anon.1, ptr }
%union.anon.1 = type { i64 }
%struct.AVRational = type { i32, i32 }
%struct.AVFilterFormatsConfig = type { ptr, ptr, ptr, ptr, ptr }

; Function Attrs: nounwind uwtable
define internal i32 @config_input(ptr noundef %0) #1 {
  %2 = alloca i32, align 4
  %3 = alloca ptr, align 8
  %4 = alloca ptr, align 8
  %5 = alloca ptr, align 8
  %6 = alloca i32, align 4
  %7 = alloca i32, align 4
  %8 = alloca i32, align 4
  store ptr %0, ptr %3, align 8, !tbaa !27
  call void @llvm.lifetime.start.p0(i64 8, ptr %4) #5
  %9 = load ptr, ptr %3, align 8, !tbaa !27
  %10 = getelementptr inbounds nuw %struct.AVFilterLink, ptr %9, i32 0, i32 2
  %11 = load ptr, ptr %10, align 8, !tbaa !46
  store ptr %11, ptr %4, align 8, !tbaa !4
  call void @llvm.lifetime.start.p0(i64 8, ptr %5) #5
  %12 = load ptr, ptr %4, align 8, !tbaa !4
  %13 = getelementptr inbounds nuw %struct.AVFilterContext, ptr %12, i32 0, i32 9
  %14 = load ptr, ptr %13, align 8, !tbaa !9
  store ptr %14, ptr %5, align 8, !tbaa !22
  call void @llvm.lifetime.start.p0(i64 4, ptr %6) #5
  call void @llvm.lifetime.start.p0(i64 4, ptr %7) #5
  store i32 1, ptr %7, align 4, !tbaa !25
  %15 = load ptr, ptr %5, align 8, !tbaa !22
  %16 = getelementptr inbounds nuw %struct.CompensationDelayContext, ptr %15, i32 0, i32 3
  %17 = load i32, ptr %16, align 8, !tbaa !29
  %18 = sitofp i32 %17 to double
  %19 = load ptr, ptr %5, align 8, !tbaa !22
  %20 = getelementptr inbounds nuw %struct.CompensationDelayContext, ptr %19, i32 0, i32 2
  %21 = load i32, ptr %20, align 4, !tbaa !33
  %22 = sitofp i32 %21 to double
  %23 = fmul nsz double %22, 1.000000e+00
  %24 = call nsz double @llvm.fmuladd.f64(double %18, double 1.000000e+02, double %23)
  %25 = load ptr, ptr %5, align 8, !tbaa !22
  %26 = getelementptr inbounds nuw %struct.CompensationDelayContext, ptr %25, i32 0, i32 1
  %27 = load i32, ptr %26, align 8, !tbaa !34
  %28 = sitofp i32 %27 to double
  %29 = call nsz double @llvm.fmuladd.f64(double %28, double 1.000000e-01, double %24)
  %30 = load ptr, ptr %5, align 8, !tbaa !22
  %31 = getelementptr inbounds nuw %struct.CompensationDelayContext, ptr %30, i32 0, i32 6
  %32 = load i32, ptr %31, align 8, !tbaa !35
  %33 = sitofp i32 %32 to double
  %34 = fadd nsz double %33, 2.731500e+02
  %35 = fdiv nsz double %34, 2.731500e+02
  %36 = call nsz double @llvm.sqrt.f64(double %35)
  %37 = fmul nsz double 6.439500e+02, %36
  %38 = fmul nsz double 1.853250e+00, %37
  %39 = fmul nsz double %38, 1.000000e+05
  %40 = fdiv nsz double %39, 3.600000e+03
  %41 = fdiv nsz double 1.000000e+00, %40
  %42 = fmul nsz double %29, %41
  %43 = load ptr, ptr %3, align 8, !tbaa !27
  %44 = getelementptr inbounds nuw %struct.AVFilterLink, ptr %43, i32 0, i32 11
  %45 = load i32, ptr %44, align 8, !tbaa !36
  %46 = sitofp i32 %45 to double
  %47 = fmul nsz double %42, %46
  %48 = fptoui double %47 to i32
  %49 = load ptr, ptr %5, align 8, !tbaa !22
  %50 = getelementptr inbounds nuw %struct.CompensationDelayContext, ptr %49, i32 0, i32 7
  store i32 %48, ptr %50, align 4, !tbaa !44
  %51 = load ptr, ptr %3, align 8, !tbaa !27
  %52 = getelementptr inbounds nuw %struct.AVFilterLink, ptr %51, i32 0, i32 11
  %53 = load i32, ptr %52, align 8, !tbaa !36
  %54 = sitofp i32 %53 to double
  %55 = call nsz double @llvm.sqrt.f64(double 0x3FF2EDC56C93847A)
  %56 = fmul nsz double 6.439500e+02, %55
  %57 = fmul nsz double 1.853250e+00, %56
  %58 = fmul nsz double %57, 1.000000e+05
  %59 = fdiv nsz double %58, 3.600000e+03
  %60 = fdiv nsz double 1.000000e+00, %59
  %61 = fmul nsz double 1.010100e+04, %60
  %62 = fmul nsz double %54, %61
  %63 = fptoui double %62 to i32
  store i32 %63, ptr %6, align 4, !tbaa !25
  br label %64

64:                                               ; preds = %68, %1
  %65 = load i32, ptr %7, align 4, !tbaa !25
  %66 = load i32, ptr %6, align 4, !tbaa !25
  %67 = icmp ult i32 %65, %66
  br i1 %67, label %68, label %71

68:                                               ; preds = %64
  %69 = load i32, ptr %7, align 4, !tbaa !25
  %70 = shl i32 %69, 1
  store i32 %70, ptr %7, align 4, !tbaa !25
  br label %64, !llvm.loop !66

71:                                               ; preds = %64
  %72 = load i32, ptr %7, align 4, !tbaa !25
  %73 = load ptr, ptr %5, align 8, !tbaa !22
  %74 = getelementptr inbounds nuw %struct.CompensationDelayContext, ptr %73, i32 0, i32 9
  store i32 %72, ptr %74, align 4, !tbaa !47
  %75 = load ptr, ptr %3, align 8, !tbaa !27
  %76 = load ptr, ptr %5, align 8, !tbaa !22
  %77 = getelementptr inbounds nuw %struct.CompensationDelayContext, ptr %76, i32 0, i32 9
  %78 = load i32, ptr %77, align 4, !tbaa !47
  %79 = call ptr @ff_get_audio_buffer(ptr noundef %75, i32 noundef %78)
  %80 = load ptr, ptr %5, align 8, !tbaa !22
  %81 = getelementptr inbounds nuw %struct.CompensationDelayContext, ptr %80, i32 0, i32 10
  store ptr %79, ptr %81, align 8, !tbaa !60
  %82 = load ptr, ptr %5, align 8, !tbaa !22
  %83 = getelementptr inbounds nuw %struct.CompensationDelayContext, ptr %82, i32 0, i32 10
  %84 = load ptr, ptr %83, align 8, !tbaa !60
  %85 = icmp ne ptr %84, null
  br i1 %85, label %87, label %86

86:                                               ; preds = %71
  store i32 -12, ptr %2, align 4
  store i32 1, ptr %8, align 4
  br label %88

87:                                               ; preds = %71
  store i32 0, ptr %2, align 4
  store i32 1, ptr %8, align 4
  br label %88

88:                                               ; preds = %87, %86
  call void @llvm.lifetime.end.p0(i64 4, ptr %7) #5
  call void @llvm.lifetime.end.p0(i64 4, ptr %6) #5
  call void @llvm.lifetime.end.p0(i64 8, ptr %5) #5
  call void @llvm.lifetime.end.p0(i64 8, ptr %4) #5
  %89 = load i32, ptr %2, align 4
  ret i32 %89
}