; Function Attrs: nounwind uwtable
define internal range(i32 -12, 1) i32 @config_input(ptr noundef %0) #1 {
  %2 = getelementptr inbounds nuw i8, ptr %0, i64 16
  %3 = load ptr, ptr %2, align 8, !tbaa !41
  %4 = getelementptr inbounds nuw i8, ptr %3, i64 72
  %5 = load ptr, ptr %4, align 8, !tbaa !4
  %6 = getelementptr inbounds nuw i8, ptr %5, i64 16
  %7 = load i32, ptr %6, align 8, !tbaa !23
  %8 = sitofp i32 %7 to double
  %9 = getelementptr inbounds nuw i8, ptr %5, i64 12
  %10 = load i32, ptr %9, align 4, !tbaa !27
  %11 = sitofp i32 %10 to double
  %12 = tail call nsz double @llvm.fmuladd.f64(double %8, double 1.000000e+02, double %11)
  %13 = getelementptr inbounds nuw i8, ptr %5, i64 8
  %14 = load i32, ptr %13, align 8, !tbaa !28
  %15 = sitofp i32 %14 to double
  %16 = tail call nsz double @llvm.fmuladd.f64(double %15, double 1.000000e-01, double %12)
  %17 = getelementptr inbounds nuw i8, ptr %5, i64 40
  %18 = load i32, ptr %17, align 8, !tbaa !29
  %19 = sitofp i32 %18 to double
  %20 = fadd nsz double %19, 2.731500e+02
  %21 = fdiv nsz double %20, 2.731500e+02
  %22 = tail call nsz double @llvm.sqrt.f64(double %21)
  %23 = fmul nsz double %22, 6.439500e+02
  %24 = fmul nsz double %23, 1.853250e+00
  %25 = fmul nsz double %24, 1.000000e+05
  %26 = fdiv nsz double %25, 3.600000e+03
  %27 = fdiv nsz double 1.000000e+00, %26
  %28 = fmul nsz double %16, %27
  %29 = getelementptr inbounds nuw i8, ptr %0, i64 64
  %30 = load i32, ptr %29, align 8, !tbaa !30
  %31 = sitofp i32 %30 to double
  %32 = fmul nsz double %28, %31
  %33 = fptoui double %32 to i32
  %34 = getelementptr inbounds nuw i8, ptr %5, i64 44
  store i32 %33, ptr %34, align 4, !tbaa !39
  %35 = fmul nsz double %31, 0x3FD1EDDB73ABFF56
  %36 = fptoui double %35 to i32
  br label %37

37:                                               ; preds = %37, %1
  %.0 = phi i32 [ 1, %1 ], [ %39, %37 ]
  %38 = icmp ult i32 %.0, %36
  %39 = shl i32 %.0, 1
  br i1 %38, label %37, label %40, !llvm.loop !61

40:                                               ; preds = %37
  %41 = getelementptr inbounds nuw i8, ptr %5, i64 52
  store i32 %.0, ptr %41, align 4, !tbaa !42
  %42 = tail call ptr @ff_get_audio_buffer(ptr noundef nonnull %0, i32 noundef %.0) #5
  %43 = getelementptr inbounds nuw i8, ptr %5, i64 56
  store ptr %42, ptr %43, align 8, !tbaa !53
  %.not = icmp eq ptr %42, null
  %. = select i1 %.not, i32 -12, i32 0
  ret i32 %.
}